target datalayout = "e-m:e-p270:32:32-p271:32:32-p272:64:64-i64:64-i128:128-f80:128-n8:16:32:64-S128"
target triple = "x86_64-pc-linux-gnu"

; Function Attrs: mustprogress nounwind uwtable
define linkonce_odr noundef float @_ZN6LibRaw8powf_limEfff(float noundef %0, float noundef %1, float noundef %2) #3 comdat align 2 {
  %4 = alloca float, align 4
  %5 = alloca float, align 4
  %6 = alloca float, align 4
  store float %0, ptr %4, align 4, !tbaa !18
  store float %1, ptr %5, align 4, !tbaa !18
  store float %2, ptr %6, align 4, !tbaa !18
  %7 = load float, ptr %5, align 4, !tbaa !18
  %8 = load float, ptr %6, align 4, !tbaa !18
  %9 = fcmp reassoc nsz arcp contract afn ogt float %7, %8
  br i1 %9, label %15, label %10

10:                                               ; preds = %3
  %11 = load float, ptr %5, align 4, !tbaa !18
  %12 = load float, ptr %6, align 4, !tbaa !18
  %13 = fneg reassoc nsz arcp contract afn float %12
  %14 = fcmp reassoc nsz arcp contract afn olt float %11, %13
  br i1 %14, label %15, label %16

15:                                               ; preds = %10, %3
  br label %20

16:                                               ; preds = %10
  %17 = load float, ptr %4, align 4, !tbaa !18
  %18 = load float, ptr %5, align 4, !tbaa !18
  %19 = call reassoc nsz arcp contract afn float @llvm.pow.f32(float %17, float %18)
  br label %20

20:                                               ; preds = %16, %15
  %21 = phi reassoc nsz arcp contract afn float [ 0.000000e+00, %15 ], [ %19, %16 ]
  ret float %21
}

; Function Attrs: mustprogress uwtable
define linkonce_odr noundef float @_ZN6LibRaw14libraw_powf64lEff(float noundef %0, float noundef %1) #0 comdat align 2 {
  %3 = alloca float, align 4
  %4 = alloca float, align 4
  store float %0, ptr %3, align 4, !tbaa !18
  store float %1, ptr %4, align 4, !tbaa !18
  %5 = load float, ptr %3, align 4, !tbaa !18
  %6 = load float, ptr %4, align 4, !tbaa !18
  %7 = call reassoc nsz arcp contract afn noundef float @_ZN6LibRaw8powf_limEfff(float noundef %5, float noundef %6, float noundef 6.400000e+01)
  ret float %7
}

; Function Attrs: mustprogress uwtable
define noundef float @_ZN6LibRaw21_CanonConvertApertureEt(i16 noundef zeroext %0) #0 align 2 {
  %2 = alloca float, align 4
  %3 = alloca i16, align 2
  store i16 %0, ptr %3, align 2, !tbaa !17
  %4 = load i16, ptr %3, align 2, !tbaa !17
  %5 = zext i16 %4 to i32
  %6 = icmp eq i32 %5, 65504
  br i1 %6, label %11, label %7

7:                                                ; preds = %1
  %8 = load i16, ptr %3, align 2, !tbaa !17
  %9 = zext i16 %8 to i32
  %10 = icmp eq i32 %9, 32767
  br i1 %10, label %11, label %12

11:                                               ; preds = %7, %1
  store float 0.000000e+00, ptr %2, align 4
  br label %17

12:                                               ; preds = %7
  %13 = load i16, ptr %3, align 2, !tbaa !17
  %14 = uitofp i16 %13 to float
  %15 = fdiv reassoc nsz arcp contract afn float %14, 6.400000e+01
  %16 = call reassoc nsz arcp contract afn noundef float @_ZN6LibRaw14libraw_powf64lEff(float noundef 2.000000e+00, float noundef %15)
  store float %16, ptr %2, align 4
  br label %17

17:                                               ; preds = %12, %11
  %18 = load float, ptr %2, align 4
  ret float %18
}