; Function Attrs: mustprogress nofree norecurse nosync nounwind willreturn memory(none) uwtable
define noundef float @_ZN6LibRaw21_CanonConvertApertureEt(i16 noundef zeroext %0) local_unnamed_addr #2 align 2 {
  switch i16 %0, label %2 [
    i16 -32, label %6
    i16 32767, label %6
  ]

2:                                                ; preds = %1
  %3 = uitofp i16 %0 to float
  %4 = fmul reassoc nsz arcp contract afn float %3, 1.562500e-02
  %or.cond.i.i = fcmp reassoc nsz arcp contract afn ogt float %4, 6.400000e+01
  %exp2 = tail call reassoc nsz arcp contract afn float @llvm.exp2.f32(float %4)
  %5 = select reassoc nsz arcp contract afn i1 %or.cond.i.i, float 0.000000e+00, float %exp2
  br label %6

6:                                                ; preds = %1, %1, %2
  %.0 = phi nsz float [ %5, %2 ], [ 0.000000e+00, %1 ], [ 0.000000e+00, %1 ]
  ret float %.0
}